; Function Attrs: mustprogress uwtable
define hidden noundef nonnull align 8 dereferenceable(8) ptr @_ZNK5nlsat20interval_set_manager7displayERSoPKNS_12interval_setE(ptr noundef nonnull readonly align 8 captures(none) dereferenceable(28) %0, ptr noundef nonnull returned align 8 dereferenceable(8) %1, ptr noundef %2) local_unnamed_addr #4 align 2 {
  %4 = icmp eq ptr %2, null
  br i1 %4, label %5, label %7

5:                                                ; preds = %3
  %6 = tail call noundef nonnull align 8 dereferenceable(8) ptr @_ZSt16__ostream_insertIcSt11char_traitsIcEERSt13basic_ostreamIT_T0_ES6_PKS3_l(ptr noundef nonnull align 8 dereferenceable(8) %1, ptr noundef nonnull @.str.11, i64 noundef 2)
  br label %25

7:                                                ; preds = %3
  %8 = tail call noundef nonnull align 8 dereferenceable(8) ptr @_ZSt16__ostream_insertIcSt11char_traitsIcEERSt13basic_ostreamIT_T0_ES6_PKS3_l(ptr noundef nonnull align 8 dereferenceable(8) %1, ptr noundef nonnull @.str.12, i64 noundef 1)
  %9 = load i32, ptr %2, align 8, !tbaa !18
  %.not21 = icmp eq i32 %9, 0
  br i1 %.not21, label %._crit_edge, label %.lr.ph

.lr.ph:                                           ; preds = %7
  %10 = getelementptr inbounds nuw i8, ptr %2, i64 8
  br label %14

._crit_edge:                                      ; preds = %17, %7
  %11 = tail call noundef nonnull align 8 dereferenceable(8) ptr @_ZSt16__ostream_insertIcSt11char_traitsIcEERSt13basic_ostreamIT_T0_ES6_PKS3_l(ptr noundef nonnull align 8 dereferenceable(8) %1, ptr noundef nonnull @.str.13, i64 noundef 1)
  %12 = getelementptr inbounds nuw i8, ptr %2, i64 4
  %13 = load i32, ptr %12, align 4
  %.not = icmp sgt i32 %13, -1
  br i1 %.not, label %25, label %23

14:                                               ; preds = %.lr.ph, %17
  %indvars.iv = phi i64 [ 0, %.lr.ph ], [ %indvars.iv.next, %17 ]
  %.not19 = icmp eq i64 %indvars.iv, 0
  br i1 %.not19, label %17, label %15

15:                                               ; preds = %14
  %16 = tail call noundef nonnull align 8 dereferenceable(8) ptr @_ZSt16__ostream_insertIcSt11char_traitsIcEERSt13basic_ostreamIT_T0_ES6_PKS3_l(ptr noundef nonnull align 8 dereferenceable(8) %1, ptr noundef nonnull @.str.5, i64 noundef 2)
  br label %17

17:                                               ; preds = %15, %14
  %18 = load ptr, ptr %0, align 8, !tbaa !23
  %19 = getelementptr inbounds nuw [0 x %"struct.nlsat::interval"], ptr %10, i64 0, i64 %indvars.iv
  tail call void @_ZN5nlsat7displayERSoRN17algebraic_numbers7managerERKNS_8intervalE(ptr noundef nonnull align 8 dereferenceable(8) %1, ptr noundef nonnull align 8 dereferenceable(17) %18, ptr noundef nonnull align 8 dereferenceable(32) %19)
  %indvars.iv.next = add nuw nsw i64 %indvars.iv, 1
  %20 = load i32, ptr %2, align 8, !tbaa !18
  %21 = zext i32 %20 to i64
  %22 = icmp samesign ult i64 %indvars.iv.next, %21
  br i1 %22, label %14, label %._crit_edge, !llvm.loop !73

23:                                               ; preds = %._crit_edge
  %24 = tail call noundef nonnull align 8 dereferenceable(8) ptr @_ZSt16__ostream_insertIcSt11char_traitsIcEERSt13basic_ostreamIT_T0_ES6_PKS3_l(ptr noundef nonnull align 8 dereferenceable(8) %1, ptr noundef nonnull @.str.14, i64 noundef 1)
  br label %25

25:                                               ; preds = %._crit_edge, %23, %5
  ret ptr %1
}